; Function Attrs: nounwind uwtable
define void @glfwDestroyWindow(ptr noundef %0) local_unnamed_addr #0 {
  %2 = load i32, ptr @_glfw, align 8, !tbaa !138
  %.not = icmp eq i32 %2, 0
  br i1 %.not, label %3, label %4

3:                                                ; preds = %1
  tail call void (i32, ptr, ...) @_glfwInputError(i32 noundef 65537, ptr noundef null) #7
  br label %19

4:                                                ; preds = %1
  %5 = icmp eq ptr %0, null
  br i1 %5, label %19, label %6

6:                                                ; preds = %4
  %7 = getelementptr inbounds nuw i8, ptr %0, i64 720
  tail call void @llvm.memset.p0.i64(ptr noundef nonnull align 8 dereferenceable(136) %7, i8 0, i64 136, i1 false)
  %8 = tail call ptr @_glfwPlatformGetTls(ptr noundef nonnull getelementptr inbounds nuw (i8, ptr @_glfw, i64 133412)) #7
  %9 = icmp eq ptr %0, %8
  br i1 %9, label %10, label %11

10:                                               ; preds = %6
  tail call void @glfwMakeContextCurrent(ptr noundef null) #7
  br label %11

11:                                               ; preds = %10, %6
  %12 = load ptr, ptr getelementptr inbounds nuw (i8, ptr @_glfw, i64 280), align 8, !tbaa !179
  tail call void %12(ptr noundef nonnull %0) #7
  br label %13

13:                                               ; preds = %13, %11
  %.0 = phi ptr [ getelementptr inbounds nuw (i8, ptr @_glfw, i64 1912), %11 ], [ %14, %13 ]
  %14 = load ptr, ptr %.0, align 8, !tbaa !143
  %.not14 = icmp eq ptr %14, %0
  br i1 %.not14, label %15, label %13

15:                                               ; preds = %13
  %16 = load ptr, ptr %0, align 8, !tbaa !151
  store ptr %16, ptr %.0, align 8, !tbaa !143
  %17 = getelementptr inbounds nuw i8, ptr %0, i64 96
  %18 = load ptr, ptr %17, align 8, !tbaa !177
  tail call void @_glfw_free(ptr noundef %18) #7
  tail call void @_glfw_free(ptr noundef nonnull %0) #7
  br label %19

19:                                               ; preds = %4, %15, %3
  ret void
}